; Function Attrs: alwaysinline norecurse nounwind uwtable
define internal void @_ZN5faiss30IndexAdditiveQuantizerFastScan19estimate_norm_scaleElPKf.omp_outlined(ptr noalias noundef readonly captures(none) %0, ptr noalias readnone captures(none) %1, ptr noundef nonnull readonly align 8 captures(none) dereferenceable(8) %2, ptr noundef nonnull readonly align 8 captures(none) dereferenceable(24) %3, ptr noundef readonly captures(none) %4, ptr noundef nonnull align 8 captures(none) dereferenceable(8) %5) #13 personality ptr @__gxx_personality_v0 {
  %7 = alloca i64, align 8
  %8 = alloca i64, align 8
  %9 = alloca i64, align 8
  %10 = alloca i32, align 4
  %11 = alloca double, align 8
  %12 = alloca [1 x ptr], align 8
  %13 = load i64, ptr %2, align 8, !tbaa !15
  %14 = icmp sgt i64 %13, 0
  br i1 %14, label %15, label %46

15:                                               ; preds = %6
  %16 = add nsw i64 %13, -1
  call void @llvm.lifetime.start.p0(i64 8, ptr nonnull %7) #14
  store i64 0, ptr %7, align 8, !tbaa !15
  call void @llvm.lifetime.start.p0(i64 8, ptr nonnull %8) #14
  store i64 %16, ptr %8, align 8, !tbaa !15
  call void @llvm.lifetime.start.p0(i64 8, ptr nonnull %9) #14
  store i64 1, ptr %9, align 8, !tbaa !15
  call void @llvm.lifetime.start.p0(i64 4, ptr nonnull %10) #14
  store i32 0, ptr %10, align 4, !tbaa !98
  call void @llvm.lifetime.start.p0(i64 8, ptr nonnull %11) #14
  store double 0.000000e+00, ptr %11, align 8, !tbaa !96
  %17 = load i32, ptr %0, align 4, !tbaa !98
  call void @__kmpc_for_static_init_8(ptr nonnull @1, i32 %17, i32 34, ptr nonnull %10, ptr nonnull %7, ptr nonnull %8, ptr nonnull %9, i64 1, i64 1)
  %18 = load i64, ptr %8, align 8, !tbaa !15
  %19 = call i64 @llvm.smin.i64(i64 %18, i64 %16)
  store i64 %19, ptr %8, align 8, !tbaa !15
  %20 = load i64, ptr %7, align 8, !tbaa !15
  %.not16 = icmp sgt i64 %20, %19
  br i1 %.not16, label %._crit_edge, label %.lr.ph

.lr.ph:                                           ; preds = %15
  %21 = getelementptr inbounds nuw i8, ptr %4, i64 56
  %22 = getelementptr inbounds nuw i8, ptr %4, i64 72
  br label %23

23:                                               ; preds = %.lr.ph, %32
  %24 = phi double [ 0.000000e+00, %.lr.ph ], [ %34, %32 ]
  %.017 = phi i64 [ %20, %.lr.ph ], [ %35, %32 ]
  %25 = load ptr, ptr %3, align 8, !tbaa !74
  %26 = load i64, ptr %21, align 8, !tbaa !81
  %27 = mul i64 %26, %.017
  %28 = load i64, ptr %22, align 8, !tbaa !71
  %29 = mul i64 %27, %28
  %30 = getelementptr inbounds nuw float, ptr %25, i64 %29
  %31 = invoke noundef float @_ZN5faiss12quantize_lut22aq_estimate_norm_scaleEmmmPKf(i64 noundef %26, i64 noundef %28, i64 noundef 2, ptr noundef %30)
          to label %32 unwind label %47

32:                                               ; preds = %23
  %33 = fpext float %31 to double
  %34 = fadd double %24, %33
  store double %34, ptr %11, align 8, !tbaa !96
  %35 = add nsw i64 %.017, 1
  %36 = load i64, ptr %8, align 8, !tbaa !15
  %.not.not = icmp slt i64 %.017, %36
  br i1 %.not.not, label %23, label %._crit_edge

._crit_edge:                                      ; preds = %32, %15
  call void @__kmpc_for_static_fini(ptr nonnull @1, i32 %17)
  store ptr %11, ptr %12, align 8
  %37 = call i32 @__kmpc_reduce_nowait(ptr nonnull @2, i32 %17, i32 1, i64 8, ptr nonnull %12, ptr nonnull @_ZN5faiss30IndexAdditiveQuantizerFastScan19estimate_norm_scaleElPKf.omp_outlined.omp.reduction.reduction_func, ptr nonnull @.gomp_critical_user_.reduction.var)
  switch i32 %37, label %45 [
    i32 1, label %38
    i32 2, label %42
  ]

38:                                               ; preds = %._crit_edge
  %39 = load double, ptr %5, align 8, !tbaa !96
  %40 = load double, ptr %11, align 8, !tbaa !96
  %41 = fadd double %39, %40
  store double %41, ptr %5, align 8, !tbaa !96
  call void @__kmpc_end_reduce_nowait(ptr nonnull @2, i32 %17, ptr nonnull @.gomp_critical_user_.reduction.var)
  br label %45

42:                                               ; preds = %._crit_edge
  %43 = load double, ptr %11, align 8, !tbaa !96
  %44 = atomicrmw fadd ptr %5, double %43 monotonic, align 8
  br label %45

45:                                               ; preds = %42, %38, %._crit_edge
  call void @llvm.lifetime.end.p0(i64 8, ptr nonnull %11) #14
  call void @llvm.lifetime.end.p0(i64 4, ptr nonnull %10) #14
  call void @llvm.lifetime.end.p0(i64 8, ptr nonnull %9) #14
  call void @llvm.lifetime.end.p0(i64 8, ptr nonnull %8) #14
  call void @llvm.lifetime.end.p0(i64 8, ptr nonnull %7) #14
  br label %46

46:                                               ; preds = %45, %6
  ret void

47:                                               ; preds = %23
  %48 = landingpad { ptr, i32 }
          catch ptr null
  %49 = extractvalue { ptr, i32 } %48, 0
  call void @__clang_call_terminate(ptr %49) #26
  unreachable
}